MODULE windows x86 918FA6CF46CC49DC9D91FE614C6882123 QtBreakPadTest.pdb
INFO CODE_ID 5C2DB1AAC000 QtBreakPadTest.exe
PUBLIC 1000 0 std::basic_string<wchar_t,std::char_traits<wchar_t>,std::allocator<wchar_t> >::~basic_string<wchar_t,std::char_traits<wchar_t>,std::allocator<wchar_t> >()
PUBLIC 1040 0 Breakpad::DumpCallback(wchar_t const *,wchar_t const *,void *,_EXCEPTION_POINTERS *,MDRawAssertionInfo *,bool)
PUBLIC 1080 0 Breakpad::CrashHandler::Init(QString const &)
PUBLIC 1090 0 Breakpad::CrashHandlerPrivate::InitCrashHandler(QString const &)
PUBLIC 1180 0 std::basic_string<wchar_t,std::char_traits<wchar_t>,std::allocator<wchar_t> >::_Copy(unsigned int,unsigned int)
PUBLIC 12f0 0 std::_Deallocate(void *,unsigned int,unsigned int)
PUBLIC 1360 0 std::allocator<wchar_t>::allocate(unsigned int)
PUBLIC 13c0 0 std::basic_string<wchar_t,std::char_traits<wchar_t>,std::allocator<wchar_t> >::assign(std::basic_string<wchar_t,std::char_traits<wchar_t>,std::allocator<wchar_t> > const &,unsigned int,unsigned int)
PUBLIC 14d0 0 std::basic_string<wchar_t,std::char_traits<wchar_t>,std::allocator<wchar_t> >::assign(wchar_t const *,unsigned int)
PUBLIC 15c0 0 std::basic_string<wchar_t,std::char_traits<wchar_t>,std::allocator<wchar_t> >::erase(unsigned int,unsigned int)
PUBLIC 1660 0 Breakpad::CrashHandler::instance()
PUBLIC 1700 0 std::_List_buy<google_breakpad::AppMemory,std::allocator<google_breakpad::AppMemory> >::_Buynode<google_breakpad::AppMemory const &>(std::_List_node<google_breakpad::AppMemory,void *> *,std::_List_node<google_breakpad::AppMemory,void *> *,google_breakpad::AppMemory const &)
PUBLIC 1730 0 std::max<unsigned __int64>(unsigned __int64 const &,unsigned __int64 const &)
PUBLIC 1760 0 std::min<unsigned __int64>(unsigned __int64 const &,unsigned __int64 const &)
PUBLIC 1790 0 google_breakpad::AutoExceptionHandler::AutoExceptionHandler()
PUBLIC 1810 0 google_breakpad::ExceptionHandler::ExceptionHandler(std::basic_string<wchar_t,std::char_traits<wchar_t>,std::allocator<wchar_t> > const &,bool (*)(void *,_EXCEPTION_POINTERS *,MDRawAssertionInfo *),bool (*)(wchar_t const *,wchar_t const *,void *,_EXCEPTION_POINTERS *,MDRawAssertionInfo *,bool),void *,int)
PUBLIC 1900 0 std::list<google_breakpad::AppMemory,std::allocator<google_breakpad::AppMemory> >::~list<google_breakpad::AppMemory,std::allocator<google_breakpad::AppMemory> >()
PUBLIC 1950 0 google_breakpad::scoped_ptr<google_breakpad::CrashGenerationClient>::~scoped_ptr<google_breakpad::CrashGenerationClient>()
PUBLIC 1970 0 google_breakpad::AutoExceptionHandler::~AutoExceptionHandler()
PUBLIC 19b0 0 google_breakpad::ExceptionHandler::~ExceptionHandler()
PUBLIC 1c60 0 google_breakpad::ExceptionHandler::ExceptionHandlerThreadMain(void *)
PUBLIC 1d20 0 google_breakpad::ExceptionHandler::HandleException(_EXCEPTION_POINTERS *)
PUBLIC 1e30 0 google_breakpad::ExceptionHandler::HandleInvalidParameter(wchar_t const *,wchar_t const *,wchar_t const *,unsigned int,unsigned int)
PUBLIC 1fc0 0 google_breakpad::ExceptionHandler::HandlePureVirtualCall()
PUBLIC 20f0 0 google_breakpad::ExceptionHandler::Initialize(std::basic_string<wchar_t,std::char_traits<wchar_t>,std::allocator<wchar_t> > const &,bool (*)(void *,_EXCEPTION_POINTERS *,MDRawAssertionInfo *),bool (*)(wchar_t const *,wchar_t const *,void *,_EXCEPTION_POINTERS *,MDRawAssertionInfo *,bool),void *,int,_MINIDUMP_TYPE,wchar_t const *,void *,google_breakpad::CrashGenerationClient *,google_breakpad::CustomClientInfo const *)
PUBLIC 24b0 0 google_breakpad::ExceptionHandler::MinidumpWriteDumpCallback(void *,_MINIDUMP_CALLBACK_INPUT * const,_MINIDUMP_CALLBACK_OUTPUT *)
PUBLIC 2540 0 google_breakpad::ExceptionHandler::UpdateNextID()
PUBLIC 26c0 0 google_breakpad::ExceptionHandler::WriteMinidumpOnHandlerThread(_EXCEPTION_POINTERS *,MDRawAssertionInfo *)
PUBLIC 2760 0 google_breakpad::ExceptionHandler::WriteMinidumpWithException(unsigned long,_EXCEPTION_POINTERS *,MDRawAssertionInfo *)
PUBLIC 27e0 0 google_breakpad::ExceptionHandler::WriteMinidumpWithExceptionForProcess(unsigned long,_EXCEPTION_POINTERS *,MDRawAssertionInfo *,void *,bool)
PUBLIC 2a70 0 std::basic_string<wchar_t,std::char_traits<wchar_t>,std::allocator<wchar_t> >::_Assign_rv(std::basic_string<wchar_t,std::char_traits<wchar_t>,std::allocator<wchar_t> > &&)
PUBLIC 2ae0 0 std::_List_alloc<std::_List_base_types<google_breakpad::AppMemory,std::allocator<google_breakpad::AppMemory> > >::_Buynode0(std::_List_node<google_breakpad::AppMemory,void *> *,std::_List_node<google_breakpad::AppMemory,void *> *)
PUBLIC 2b10 0 std::vector<google_breakpad::ExceptionHandler *,std::allocator<google_breakpad::ExceptionHandler *> >::_Reallocate(unsigned int)
PUBLIC 2b70 0 std::vector<google_breakpad::ExceptionHandler *,std::allocator<google_breakpad::ExceptionHandler *> >::_Reserve(unsigned int)
PUBLIC 2bd0 0 std::allocator<google_breakpad::ExceptionHandler *>::allocate(unsigned int)
PUBLIC 2c30 0 std::vector<google_breakpad::ExceptionHandler *,std::allocator<google_breakpad::ExceptionHandler *> >::push_back(google_breakpad::ExceptionHandler * const &)
PUBLIC 2ca0 0 __local_stdio_printf_options
PUBLIC 2cb0 0 _snwprintf_s
PUBLIC 2cf0 0 fprintf
PUBLIC 2d20 0 swprintf_s
PUBLIC 2d50 0 google_breakpad::GUIDString::GUIDToWString(_GUID *)
PUBLIC 2e10 0 google_breakpad::CrashGenerationClient::CrashGenerationClient(void *,_MINIDUMP_TYPE,google_breakpad::CustomClientInfo const *)
PUBLIC 2ea0 0 google_breakpad::CrashGenerationClient::CrashGenerationClient(wchar_t const *,_MINIDUMP_TYPE,google_breakpad::CustomClientInfo const *)
PUBLIC 2f60 0 google_breakpad::CrashGenerationClient::~CrashGenerationClient()
PUBLIC 2fd0 0 google_breakpad::CrashGenerationClient::ConnectToPipe(wchar_t const *,unsigned long,unsigned long)
PUBLIC 3040 0 google_breakpad::CrashGenerationClient::ConnectToServer()
PUBLIC 30a0 0 google_breakpad::CrashGenerationClient::Register()
PUBLIC 30e0 0 google_breakpad::CrashGenerationClient::RegisterClient(void *)
PUBLIC 3280 0 google_breakpad::CrashGenerationClient::RequestDump(_EXCEPTION_POINTERS *,MDRawAssertionInfo *)
PUBLIC 3320 0 main
FUNC 33ac 33 0 operator new(unsigned int)
FUNC 33df 5 0 operator delete(void *)
FUNC 33e4 e 0 operator delete(void *,unsigned int)
FUNC 33f2 44 0 find_pe_section
FUNC 3436 35 0 __scrt_acquire_startup_lock
FUNC 346b 39 0 __scrt_initialize_crt
FUNC 34a4 97 0 __scrt_initialize_onexit_tables
FUNC 353b 8a 0 __scrt_is_nonwritable_in_current_image
FUNC 35c5 1d 0 __scrt_release_startup_lock
FUNC 35e2 28 0 __scrt_uninitialize_crt
FUNC 360a 3b 0 _onexit
FUNC 3645 15 0 atexit
FUNC 365a c0 0 __scrt_initialize_thread_safe_statics
FUNC m 371a 1d 0 __crt_fast_encode_pointer<int (*)(_RTL_CONDITION_VARIABLE *,_RTL_CRITICAL_SECTION *,unsigned long)>(int (*const)(_RTL_CONDITION_VARIABLE *,_RTL_CRITICAL_SECTION *,unsigned long))
FUNC 3737 1c 0 __scrt_uninitialize_thread_safe_statics
FUNC 3753 19 0 _Init_thread_abort
FUNC 376c 3f 0 _Init_thread_footer
FUNC 37ab 46 0 _Init_thread_header
FUNC 37f1 c 0 _Init_thread_lock
FUNC 37fd 41 0 _Init_thread_notify
FUNC 383e c 0 _Init_thread_unlock
FUNC 384a 65 0 _Init_thread_wait
FUNC 38af 11 0 __security_check_cookie
FUNC 38c0 a4 0 pre_c_initialization
FUNC 3964 8 0 post_pgo_initialization
FUNC 396c 12 0 pre_cpp_initialization
FUNC 397e 16f 0 __scrt_common_main_seh
FUNC 3aed a 0 mainCRTStartup
FUNC 3af7 1b 0 std::bad_alloc::bad_alloc(std::bad_alloc const &)
FUNC 3b12 18 0 std::bad_alloc::bad_alloc()
FUNC 3b2a 1b 0 std::bad_array_new_length::bad_array_new_length(std::bad_array_new_length const &)
FUNC 3b45 18 0 std::bad_array_new_length::bad_array_new_length()
FUNC 3b5d 2c 0 std::exception::exception(std::exception const &)
FUNC m 3b89 11 0 std::bad_alloc::~bad_alloc()
FUNC m 3b9a 2d 0 std::bad_alloc::`scalar deleting destructor'(unsigned int)
FUNC 3bc7 1d 0 __scrt_throw_std_bad_alloc()
FUNC 3be4 1d 0 __scrt_throw_std_bad_array_new_length()
FUNC 3c01 d 0 std::exception::what()
FUNC 3c0e 19a 0 __isa_available_init
FUNC 3da8 4 0 _get_startup_argv_mode
FUNC 3dac c 0 __scrt_is_ucrt_dll_in_use
FUNC 3db8 11b 0 __scrt_fastfail
FUNC 3ed3 44 0 __scrt_is_managed_app
FUNC 3f17 c 0 __scrt_set_unhandled_exception_filter
FUNC 3f23 41 4 __scrt_unhandled_exception_filter
FUNC 3f64 6 0 _guard_check_icall
FUNC 3f70 46 0 _SEH_prolog4
FUNC 3fb6 15 0 _SEH_epilog4
FUNC 3fcb 23 0 _except_handler4
FUNC 3ff0 28 0 __raise_securityfailure
FUNC 4018 fb 0 __report_gsfailure
FUNC 4113 9c 0 __security_init_cookie
FUNC 41af 6 0 _get_startup_file_mode
FUNC m 41b5 3 0 __scrt_initialize_winrt
FUNC 41b8 c 0 __scrt_initialize_type_info()
FUNC m 41c4 3 0 __scrt_stub_for_acrt_initialize
FUNC 41c7 21 0 _initialize_default_precision
FUNC m 41e8 1 0 _guard_check_icall_nop
FUNC 41e9 6 0 __local_stdio_scanf_options
FUNC 41ef 1d 0 __scrt_initialize_default_local_stdio_options
FUNC 420c c 0 __scrt_is_user_matherr_present
FUNC 4218 6 0 __scrt_get_dyn_tls_init_callback
FUNC 421e 6 0 __scrt_get_dyn_tls_dtor_callback
FUNC 4224 2b 0 _RTC_Initialize
FUNC 424f 2b 0 _RTC_Terminate
FUNC 427a 23 0 type_info::`scalar deleting destructor'(unsigned int)
PUBLIC 429e 4 IsProcessorFeaturePresent
PUBLIC 42a4 8 _CxxThrowException
PUBLIC 42aa 0 __CxxFrameHandler3
PUBLIC 42b0 0 memcpy
PUBLIC 42b6 0 __std_terminate
PUBLIC 42bc 0 memset
PUBLIC 42c2 0 __vcrt_InitializeCriticalSectionEx
PUBLIC 42c8 0 __std_exception_copy
PUBLIC 42ce 0 __std_exception_destroy
PUBLIC 42d4 0 _except_handler4_common
PUBLIC 42da 0 exit
PUBLIC 42e0 0 _callnewh
PUBLIC 42e6 0 malloc
PUBLIC 42ec 0 free
PUBLIC 42f2 0 _configure_narrow_argv
PUBLIC 42f8 0 _initialize_narrow_environment
PUBLIC 42fe 0 _initialize_onexit_table
PUBLIC 4304 0 _register_onexit_function
PUBLIC 430a 0 _crt_atexit
PUBLIC 4310 0 _cexit
PUBLIC 4316 0 _seh_filter_exe
PUBLIC 431c 0 _set_app_type
PUBLIC 4322 0 __setusermatherr
PUBLIC 4328 0 _get_initial_narrow_environment
PUBLIC 432e 0 _initterm
PUBLIC 4334 0 _initterm_e
PUBLIC 433a 0 _exit
PUBLIC 4340 0 _set_fmode
PUBLIC 4346 0 __p___argc
PUBLIC 434c 0 __p___argv
PUBLIC 4352 0 _c_exit
PUBLIC 4358 0 _register_thread_local_exe_atexit_callback
PUBLIC 435e 0 _configthreadlocale
PUBLIC 4364 0 _set_new_mode
PUBLIC 436a 0 __p__commode
PUBLIC 4370 0 terminate
PUBLIC 4376 0 _controlfp_s
STACK WIN 4 33ac 33 3 0 4 0 0 0 1 $T0 $ebp = $eip $T0 4 + ^ = $ebp $T0 ^ = $esp $T0 8 + = 
STACK WIN 4 33df 5 0 0 4 0 0 0 1 $T0 $ebp = $eip $T0 4 + ^ = $ebp $T0 ^ = $esp $T0 8 + = 
STACK WIN 4 33e4 e 3 0 8 0 0 0 1 $T0 $ebp = $eip $T0 4 + ^ = $ebp $T0 ^ = $esp $T0 8 + = 
STACK WIN 4 33f2 44 7 0 8 0 0 0 1 $T0 $ebp = $eip $T0 4 + ^ = $ebp $T0 ^ = $esp $T0 8 + = 
STACK WIN 4 33f9 37 0 0 8 4 0 0 1 $T0 $ebp = $eip $T0 4 + ^ = $ebp $T0 ^ = $esp $T0 8 + =  $23 $T0 4 - ^ = 
STACK WIN 4 3436 35 0 0 0 0 0 0 1 $T0 .raSearch = $eip $T0 ^ = $esp $T0 4 + = 
STACK WIN 4 3449 21 0 0 0 4 0 0 1 $T0 .raSearch = $eip $T0 ^ = $esp $T0 4 + =  $23 $T0 4 - ^ = 
STACK WIN 4 346b 39 3 0 4 0 0 0 1 $T0 $ebp = $eip $T0 4 + ^ = $ebp $T0 ^ = $esp $T0 8 + = 
STACK WIN 4 34a4 97 7 0 4 0 c 0 1 $T0 $ebp = $eip $T0 4 + ^ = $ebp $T0 ^ = $esp $T0 8 + = 
STACK WIN 4 34ab 84 0 0 4 4 c 0 1 $T0 $ebp = $eip $T0 4 + ^ = $ebp $T0 ^ = $esp $T0 8 + =  $23 $T0 16 - ^ = 
STACK WIN 4 34f3 3b 0 0 4 8 c 0 1 $T0 $ebp = $eip $T0 4 + ^ = $ebp $T0 ^ = $esp $T0 8 + =  $23 $T0 16 - ^ =  $24 $T0 20 - ^ = 
STACK WIN 4 353b 8a c 0 4 10 18 0 1 $T0 $ebp = $eip $T0 4 + ^ = $ebp $T0 ^ = $esp $T0 8 + =  $20 $T0 28 - ^ =  $23 $T0 32 - ^ =  $24 $T0 36 - ^ = 
STACK WIN 4 35a0 13 0 0 4 10 18 0 1 $T0 $ebp = $T2 $esp = $T1 .raSearchStart = $eip $T1 ^ = $ebp $T0 = $esp $T1 4 + = 
STACK WIN 4 35c5 1d 3 0 4 0 0 0 1 $T0 $ebp = $eip $T0 4 + ^ = $ebp $T0 ^ = $esp $T0 8 + = 
STACK WIN 4 35e2 28 3 0 8 0 0 0 1 $T0 $ebp = $eip $T0 4 + ^ = $ebp $T0 ^ = $esp $T0 8 + = 
STACK WIN 4 360a 3b 3 0 4 0 0 0 1 $T0 $ebp = $eip $T0 4 + ^ = $ebp $T0 ^ = $esp $T0 8 + = 
STACK WIN 4 3645 15 3 0 4 0 0 0 1 $T0 $ebp = $eip $T0 4 + ^ = $ebp $T0 ^ = $esp $T0 8 + = 
STACK WIN 4 365a c0 3 0 0 0 0 0 1 $T0 .raSearch = $eip $T0 ^ = $esp $T0 4 + = 
STACK WIN 4 365b b6 2 0 0 4 0 0 1 $T0 .raSearch = $eip $T0 ^ = $esp $T0 4 + =  $20 $T0 4 - ^ = 
STACK WIN 4 365c b2 1 0 0 8 0 0 1 $T0 .raSearch = $eip $T0 ^ = $esp $T0 4 + =  $20 $T0 4 - ^ =  $23 $T0 8 - ^ = 
STACK WIN 4 365d b0 0 0 0 c 0 0 1 $T0 .raSearch = $eip $T0 ^ = $esp $T0 4 + =  $20 $T0 4 - ^ =  $23 $T0 8 - ^ =  $24 $T0 12 - ^ = 
STACK WIN 4 371a 1d 3 0 4 0 0 0 1 $T0 $ebp = $eip $T0 4 + ^ = $ebp $T0 ^ = $esp $T0 8 + = 
STACK WIN 4 3737 1c 0 0 0 0 0 0 1 $T0 .raSearch = $eip $T0 ^ = $esp $T0 4 + = 
STACK WIN 4 3753 19 3 0 4 0 0 0 1 $T0 $ebp = $eip $T0 4 + ^ = $ebp $T0 ^ = $esp $T0 8 + = 
STACK WIN 4 376c 3f 3 0 4 0 0 0 1 $T0 $ebp = $eip $T0 4 + ^ = $ebp $T0 ^ = $esp $T0 8 + = 
STACK WIN 4 37ab 46 4 0 4 0 0 0 1 $T0 $ebp = $eip $T0 4 + ^ = $ebp $T0 ^ = $esp $T0 8 + = 
STACK WIN 4 37af 3c 0 0 4 4 0 0 1 $T0 $ebp = $eip $T0 4 + ^ = $ebp $T0 ^ = $esp $T0 8 + =  $23 $T0 4 - ^ = 
STACK WIN 4 37f1 c 0 0 0 0 0 0 1 $T0 .raSearch = $eip $T0 ^ = $esp $T0 4 + = 
STACK WIN 4 37fd 41 0 0 0 0 0 0 1 $T0 .raSearch = $eip $T0 ^ = $esp $T0 4 + = 
STACK WIN 4 3807 22 0 0 0 4 0 0 1 $T0 .raSearch = $eip $T0 ^ = $esp $T0 4 + =  $23 $T0 4 - ^ = 
STACK WIN 4 383e c 0 0 0 0 0 0 1 $T0 .raSearch = $eip $T0 ^ = $esp $T0 4 + = 
STACK WIN 4 384a 65 b 0 4 0 0 0 1 $T0 $ebp = $eip $T0 4 + ^ = $ebp $T0 ^ = $esp $T0 8 + = 
STACK WIN 4 3855 58 0 0 4 4 0 0 1 $T0 $ebp = $eip $T0 4 + ^ = $ebp $T0 ^ = $esp $T0 8 + =  $23 $T0 4 - ^ = 
STACK WIN 4 38af 11 0 0 0 0 0 0 1 $T0 .raSearch = $eip $T0 ^ = $esp $T0 4 + = 
STACK WIN 4 38c0 a4 1 0 0 0 0 0 1 $T0 .raSearch = $eip $T0 ^ = $esp $T0 4 + = 
STACK WIN 4 38c1 2b 0 0 0 4 0 0 1 $T0 .raSearch = $eip $T0 ^ = $esp $T0 4 + =  $23 $T0 4 - ^ = 
STACK WIN 4 3964 8 0 0 0 0 0 0 1 $T0 .raSearch = $eip $T0 ^ = $esp $T0 4 + = 
STACK WIN 4 396c 12 0 0 0 0 0 0 1 $T0 .raSearch = $eip $T0 ^ = $esp $T0 4 + = 
STACK WIN 4 397e 16f c 0 0 10 24 0 1 $T0 $ebp = $eip $T0 4 + ^ = $ebp $T0 ^ = $esp $T0 8 + =  $20 $T0 40 - ^ =  $23 $T0 44 - ^ =  $24 $T0 48 - ^ = 
STACK WIN 4 3aaa 14 0 0 0 10 24 0 1 $T0 $ebp = $T2 $esp = $T1 .raSearchStart = $eip $T1 ^ = $ebp $T0 = $esp $T1 4 + = 
STACK WIN 4 3aed a 0 0 0 0 0 0 1 $T0 .raSearch = $eip $T0 ^ = $esp $T0 4 + = 
STACK WIN 4 3af7 1b 9 0 4 0 0 0 1 $T0 $ebp = $eip $T0 4 + ^ = $ebp $T0 ^ = $esp $T0 8 + = 
STACK WIN 4 3afb 13 5 0 4 4 0 0 1 $T0 $ebp = $eip $T0 4 + ^ = $ebp $T0 ^ = $esp $T0 8 + =  $23 $T0 4 - ^ = 
STACK WIN 4 3b12 18 0 0 0 0 0 0 1 $T0 .raSearch = $eip $T0 ^ = $esp $T0 4 + = 
STACK WIN 4 3b2a 1b 9 0 4 0 0 0 1 $T0 $ebp = $eip $T0 4 + ^ = $ebp $T0 ^ = $esp $T0 8 + = 
STACK WIN 4 3b2e 13 5 0 4 4 0 0 1 $T0 $ebp = $eip $T0 4 + ^ = $ebp $T0 ^ = $esp $T0 8 + =  $23 $T0 4 - ^ = 
STACK WIN 4 3b45 18 0 0 0 0 0 0 1 $T0 .raSearch = $eip $T0 ^ = $esp $T0 4 + = 
STACK WIN 4 3b5d 2c 6 0 4 0 0 0 1 $T0 $ebp = $eip $T0 4 + ^ = $ebp $T0 ^ = $esp $T0 8 + = 
STACK WIN 4 3b61 24 2 0 4 4 0 0 1 $T0 $ebp = $eip $T0 4 + ^ = $ebp $T0 ^ = $esp $T0 8 + =  $23 $T0 4 - ^ = 
STACK WIN 4 3b89 11 0 0 0 0 0 0 1 $T0 .raSearch = $eip $T0 ^ = $esp $T0 4 + = 
STACK WIN 4 3b9a 2d 6 0 4 0 0 0 1 $T0 $ebp = $eip $T0 4 + ^ = $ebp $T0 ^ = $esp $T0 8 + = 
STACK WIN 4 3b9e 25 2 0 4 4 0 0 1 $T0 $ebp = $eip $T0 4 + ^ = $ebp $T0 ^ = $esp $T0 8 + =  $23 $T0 4 - ^ = 
STACK WIN 4 3bc7 1d 6 0 0 0 c 0 1 $T0 $ebp = $eip $T0 4 + ^ = $ebp $T0 ^ = $esp $T0 8 + = 
STACK WIN 4 3be4 1d 6 0 0 0 c 0 1 $T0 $ebp = $eip $T0 4 + ^ = $ebp $T0 ^ = $esp $T0 8 + = 
STACK WIN 4 3c01 d 0 0 0 0 0 0 1 $T0 .raSearch = $eip $T0 ^ = $esp $T0 4 + = 
STACK WIN 4 3c0e 19a e 0 0 0 28 0 1 $T0 $ebp = $eip $T0 4 + ^ = $ebp $T0 ^ = $esp $T0 8 + = 
STACK WIN 4 3c1c 188 0 0 0 4 28 0 1 $T0 $ebp = $eip $T0 4 + ^ = $ebp $T0 ^ = $esp $T0 8 + =  $20 $T0 44 - ^ = 
STACK WIN 4 3c44 e9 0 0 0 8 28 0 1 $T0 $ebp = $eip $T0 4 + ^ = $ebp $T0 ^ = $esp $T0 8 + =  $20 $T0 44 - ^ =  $23 $T0 48 - ^ = 
STACK WIN 4 3c45 e7 0 0 0 c 28 0 1 $T0 $ebp = $eip $T0 4 + ^ = $ebp $T0 ^ = $esp $T0 8 + =  $20 $T0 44 - ^ =  $23 $T0 48 - ^ =  $24 $T0 52 - ^ = 
STACK WIN 4 3da8 4 0 0 0 0 0 0 1 $T0 .raSearch = $eip $T0 ^ = $esp $T0 4 + = 
STACK WIN 4 3dac c 0 0 0 0 0 0 1 $T0 .raSearch = $eip $T0 ^ = $esp $T0 4 + = 
STACK WIN 4 3db8 11b b 0 4 8 324 0 1 $T0 $ebp = $eip $T0 4 + ^ = $ebp $T0 ^ = $esp $T0 8 + =  $20 $T0 808 - ^ =  $23 $T0 812 - ^ = 
STACK WIN 4 3ed3 44 0 0 0 0 0 0 1 $T0 .raSearch = $eip $T0 ^ = $esp $T0 4 + = 
STACK WIN 4 3f17 c 0 0 0 0 0 0 1 $T0 .raSearch = $eip $T0 ^ = $esp $T0 4 + = 
STACK WIN 4 3f23 41 3 0 4 0 0 0 1 $T0 $ebp = $eip $T0 4 + ^ = $ebp $T0 ^ = $esp $T0 8 + = 
STACK WIN 4 3f64 6 0 0 0 0 0 0 1 $T0 .raSearch = $eip $T0 ^ = $esp $T0 4 + = 
STACK WIN 4 3fcb 23 3 0 10 0 0 0 1 $T0 $ebp = $eip $T0 4 + ^ = $ebp $T0 ^ = $esp $T0 8 + = 
STACK WIN 4 3ff0 28 3 0 4 0 0 0 1 $T0 $ebp = $eip $T0 4 + ^ = $ebp $T0 ^ = $esp $T0 8 + = 
STACK WIN 4 4018 fb 9 0 0 0 324 0 1 $T0 $ebp = $eip $T0 4 + ^ = $ebp $T0 ^ = $esp $T0 8 + = 
STACK WIN 4 4113 9c 15 0 0 0 14 0 1 $T0 $ebp = $eip $T0 4 + ^ = $ebp $T0 ^ = $esp $T0 8 + = 
STACK WIN 4 4127 84 1 0 0 4 14 0 1 $T0 $ebp = $eip $T0 4 + ^ = $ebp $T0 ^ = $esp $T0 8 + =  $23 $T0 24 - ^ = 
STACK WIN 4 4128 82 0 0 0 8 14 0 1 $T0 $ebp = $eip $T0 4 + ^ = $ebp $T0 ^ = $esp $T0 8 + =  $23 $T0 24 - ^ =  $24 $T0 28 - ^ = 
STACK WIN 4 41af 6 0 0 0 0 0 0 1 $T0 .raSearch = $eip $T0 ^ = $esp $T0 4 + = 
STACK WIN 4 41b5 3 0 0 0 0 0 0 1 $T0 .raSearch = $eip $T0 ^ = $esp $T0 4 + = 
STACK WIN 4 41b8 c 0 0 0 0 0 0 1 $T0 .raSearch = $eip $T0 ^ = $esp $T0 4 + = 
STACK WIN 4 41c4 3 0 0 0 0 0 0 1 $T0 .raSearch = $eip $T0 ^ = $esp $T0 4 + = 
STACK WIN 4 41c7 21 0 0 0 0 0 0 1 $T0 .raSearch = $eip $T0 ^ = $esp $T0 4 + = 
STACK WIN 4 41e8 1 0 0 0 0 0 0 1 $T0 .raSearch = $eip $T0 ^ = $esp $T0 4 + = 
STACK WIN 4 41e9 6 0 0 0 0 0 0 1 $T0 .raSearch = $eip $T0 ^ = $esp $T0 4 + = 
STACK WIN 4 41ef 1d 0 0 0 0 0 0 1 $T0 .raSearch = $eip $T0 ^ = $esp $T0 4 + = 
STACK WIN 4 420c c 0 0 0 0 0 0 1 $T0 .raSearch = $eip $T0 ^ = $esp $T0 4 + = 
STACK WIN 4 4218 6 0 0 0 0 0 0 1 $T0 .raSearch = $eip $T0 ^ = $esp $T0 4 + = 
STACK WIN 4 421e 6 0 0 0 0 0 0 1 $T0 .raSearch = $eip $T0 ^ = $esp $T0 4 + = 
STACK WIN 4 4224 2b 2 0 0 0 0 0 1 $T0 .raSearch = $eip $T0 ^ = $esp $T0 4 + = 
STACK WIN 4 4225 29 1 0 0 4 0 0 1 $T0 .raSearch = $eip $T0 ^ = $esp $T0 4 + =  $20 $T0 4 - ^ = 
STACK WIN 4 4226 27 0 0 0 8 0 0 1 $T0 .raSearch = $eip $T0 ^ = $esp $T0 4 + =  $20 $T0 4 - ^ =  $23 $T0 8 - ^ = 
STACK WIN 4 4235 17 0 0 0 c 0 0 1 $T0 .raSearch = $eip $T0 ^ = $esp $T0 4 + =  $20 $T0 4 - ^ =  $23 $T0 8 - ^ =  $24 $T0 12 - ^ = 
STACK WIN 4 424f 2b 2 0 0 0 0 0 1 $T0 .raSearch = $eip $T0 ^ = $esp $T0 4 + = 
STACK WIN 4 4250 29 1 0 0 4 0 0 1 $T0 .raSearch = $eip $T0 ^ = $esp $T0 4 + =  $20 $T0 4 - ^ = 
STACK WIN 4 4251 27 0 0 0 8 0 0 1 $T0 .raSearch = $eip $T0 ^ = $esp $T0 4 + =  $20 $T0 4 - ^ =  $23 $T0 8 - ^ = 
STACK WIN 4 4260 17 0 0 0 c 0 0 1 $T0 .raSearch = $eip $T0 ^ = $esp $T0 4 + =  $20 $T0 4 - ^ =  $23 $T0 8 - ^ =  $24 $T0 12 - ^ = 
STACK WIN 4 427a 23 a 0 4 0 0 0 1 $T0 $ebp = $eip $T0 4 + ^ = $ebp $T0 ^ = $esp $T0 8 + = 
STACK WIN 4 4282 17 2 0 4 4 0 0 1 $T0 $ebp = $eip $T0 4 + ^ = $ebp $T0 ^ = $esp $T0 8 + =  $23 $T0 4 - ^ = 
STACK WIN 0 1000 3d 3 0 0 4 0 0 0 0
STACK WIN 0 1040 36 3 0 18 0 14 0 0 0
STACK WIN 0 1080 7 0 0 4 0 0 0 0 0
STACK WIN 0 12f0 63 0 0 c 0 0 0 0 0
STACK WIN 0 1360 57 0 0 4 0 0 0 0 0
STACK WIN 0 13c0 109 10 0 c c 0 0 0 1
STACK WIN 0 14d0 f0 8 0 8 8 0 0 0 0
STACK WIN 0 15c0 a0 3 0 8 8 0 0 0 0
STACK WIN 0 1700 21 0 0 c 0 0 0 0 0
STACK WIN 0 1730 21 5 0 8 4 0 0 0 0
STACK WIN 0 1760 21 5 0 8 4 0 0 0 0
STACK WIN 0 1790 75 9 0 0 8 0 0 0 0
STACK WIN 0 1900 42 3 0 0 4 0 0 0 0
STACK WIN 0 1950 1e 1 0 0 4 0 0 0 0
STACK WIN 0 1970 36 0 0 0 0 0 0 0 0
STACK WIN 0 19b0 2a2 a 0 0 8 0 0 0 1
STACK WIN 0 1c60 ba 8 0 4 10 0 0 0 1
STACK WIN 0 24b0 88 0 0 c 0 0 0 0 0
STACK WIN 0 2540 175 3b 0 0 10 244 0 0 0
STACK WIN 0 26c0 9a 3 0 8 8 0 0 0 0
STACK WIN 0 2760 72 8 0 c c 0 0 0 0
STACK WIN 0 27e0 281 31 0 14 c 88 0 0 1
STACK WIN 0 2a70 6a 8 0 4 8 0 0 0 0
STACK WIN 0 2ae0 2e 0 0 8 0 0 0 0 0
STACK WIN 0 2b10 5c b 0 4 10 0 0 0 1
STACK WIN 0 2b70 60 3 0 4 8 0 0 0 0
STACK WIN 0 2bd0 58 0 0 4 0 0 0 0 0
STACK WIN 0 2c30 61 3 0 4 8 0 0 0 0
STACK WIN 0 2ca0 6 0 0 0 0 0 0 0 0
STACK WIN 0 2cb0 33 0 0 10 0 0 0 0 0
STACK WIN 0 2cf0 23 0 0 8 0 0 0 0 0
STACK WIN 0 2d20 2f 0 0 c 0 0 0 0 0
STACK WIN 0 2d50 be 13 0 8 4 54 0 0 0
STACK WIN 0 2e10 88 d 0 c 4 4 0 0 0
STACK WIN 0 2ea0 b6 e 0 c 4 4 0 0 0
STACK WIN 0 2f60 64 3 0 0 8 0 0 0 0
STACK WIN 0 2fd0 67 0 0 c 0 0 0 0 1
STACK WIN 0 3040 51 1 0 0 0 4 0 0 0
STACK WIN 0 30a0 36 3 0 0 4 0 0 0 0
STACK WIN 0 30e0 192 a 0 4 8 88 0 0 0
STACK WIN 0 3280 98 6 0 8 4 8 0 0 0
STACK WIN 0 35a0 13 0 0 0 0 0 0 0 0
STACK WIN 0 3aaa 14 0 0 0 0 0 0 0 0
STACK WIN 0 45d0 39 1 0 0 4 0 0 0 0
